; Function Attrs: mustprogress nounwind uwtable
define void @_ZN16FilterDockDialogD2Ev(ptr noundef nonnull align 8 dereferenceable(1048) %0) unnamed_addr #4 align 2 {
  store ptr getelementptr inbounds ({ [54 x ptr], [10 x ptr] }, ptr @_ZTV16FilterDockDialog, i64 0, i32 0, i64 2), ptr %0, align 8
  %2 = getelementptr inbounds i8, ptr %0, i64 16
  store ptr getelementptr inbounds ({ [54 x ptr], [10 x ptr] }, ptr @_ZTV16FilterDockDialog, i64 0, i32 1, i64 2), ptr %2, align 8
  %3 = getelementptr inbounds i8, ptr %0, i64 48
  %4 = load ptr, ptr %3, align 8
  %5 = icmp eq ptr %4, null
  br i1 %5, label %7, label %6

6:                                                ; preds = %1
  tail call void @_ZdlPv(ptr noundef nonnull %4) #17
  br label %7

7:                                                ; preds = %6, %1
  %8 = getelementptr inbounds i8, ptr %0, i64 1000
  tail call void @_ZN17RichParameterListD1Ev(ptr noundef nonnull align 8 dereferenceable(24) %8) #18
  %9 = getelementptr inbounds i8, ptr %0, i64 560
  tail call void @_ZN14MeshModelStateD2Ev(ptr noundef nonnull align 8 dereferenceable(436) %9) #18
  %10 = getelementptr inbounds i8, ptr %0, i64 120
  tail call void @_ZN14MeshModelStateD2Ev(ptr noundef nonnull align 8 dereferenceable(436) %10) #18
  %11 = getelementptr inbounds i8, ptr %0, i64 72
  tail call void @_ZN17RichParameterListD1Ev(ptr noundef nonnull align 8 dereferenceable(24) %11) #18
  tail call void @_ZN11QDockWidgetD2Ev(ptr noundef nonnull align 8 dereferenceable(48) %0) #18
  ret void
}